	.file	"main.c"
	.option pic
	.text
.Ltext0:
	.cfi_sections	.debug_frame
	.file 0 "/root/os22fall-stu/src/lab1/init" "main.c"
	.section	.rodata
	.align	3
.LC0:
	.string	"Hello RISC-V\n"
	.section	.text.start_kernel,"ax",@progbits
	.align	2
	.globl	start_kernel
	.type	start_kernel, @function
start_kernel:
.LFB0:
	.file 1 "main.c"
	.loc 1 7 20
	.cfi_startproc
	addi	sp,sp,-32
	.cfi_def_cfa_offset 32
	sd	ra,24(sp)
	sd	s0,16(sp)
	.cfi_offset 1, -8
	.cfi_offset 8, -16
	addi	s0,sp,32
	.cfi_def_cfa 8, 0
	.loc 1 8 5
	li	a7,0
	li	a6,0
	li	a5,0
	li	a4,0
	li	a3,0
	li	a2,48
	li	a1,0
	li	a0,1
	call	sbi_ecall@plt
	.loc 1 9 5
	li	a0,2022
	call	puti@plt
	.loc 1 10 5
	lla	a0,.LC0
	call	puts@plt
.LBB2:
	.loc 1 12 40
#APP
# 12 "main.c" 1
	csrr a5, sstatus
# 0 "" 2
#NO_APP
	mv	ra,a5
	.loc 1 12 99
	mv	a5,ra
.LBE2:
	.loc 1 12 12
	sd	a5,-24(s0)
	.loc 1 13 5
	ld	a5,-24(s0)
	sext.w	a5,a5
	mv	a0,a5
	call	puti@plt
.LBB3:
	.loc 1 15 15
	li	a5,2306048
	addi	a5,a5,819
	sd	a5,-32(s0)
	.loc 1 15 41
	ld	a5,-32(s0)
#APP
# 15 "main.c" 1
	csrw sscratch, a5
# 0 "" 2
#NO_APP
.LBE3:
	.loc 1 17 5
	call	test@plt
	.loc 1 19 9
	li	a5,0
	.loc 1 20 1
	mv	a0,a5
	ld	ra,24(sp)
	.cfi_restore 1
	ld	s0,16(sp)
	.cfi_restore 8
	.cfi_def_cfa 2, 32
	addi	sp,sp,32
	.cfi_def_cfa_offset 0
	jr	ra
	.cfi_endproc
.LFE0:
	.size	start_kernel, .-start_kernel
	.text
.Letext0:
	.file 2 "/root/os22fall-stu/src/lab1/arch/riscv/include/sbi.h"
	.file 3 "/root/os22fall-stu/src/lab1/include/print.h"
	.file 4 "/root/os22fall-stu/src/lab1/include/types.h"
	.section	.note.GNU-stack,"",@progbits
